; Function Attrs: mustprogress nofree norecurse nosync nounwind willreturn memory(argmem: readwrite) uwtable
define void @_ZN6google8protobuf5Mixin12InternalSwapEPS1_(ptr nocapture noundef nonnull align 8 dereferenceable(40) %this, ptr noalias nocapture noundef %other) local_unnamed_addr #11 align 2 {
entry:
  %_internal_metadata_.i = getelementptr inbounds i8, ptr %this, i64 8
  %_internal_metadata_3 = getelementptr inbounds i8, ptr %other, i64 8
  %0 = load i64, ptr %_internal_metadata_3, align 8
  %1 = getelementptr inbounds i8, ptr %this, i64 16
  %2 = getelementptr inbounds i8, ptr %other, i64 16
  %root_ = getelementptr inbounds i8, ptr %this, i64 24
  %root_5 = getelementptr inbounds i8, ptr %other, i64 24
  %3 = load i64, ptr %root_, align 8
  %4 = load <2 x ptr>, ptr %2, align 8
  %5 = load <2 x i64>, ptr %_internal_metadata_.i, align 8
  store i64 %0, ptr %_internal_metadata_.i, align 8
  store <2 x i64> %5, ptr %_internal_metadata_3, align 8
  store i64 %3, ptr %root_5, align 8
  store <2 x ptr> %4, ptr %1, align 8
  ret void
}